target datalayout = "e-m:e-p270:32:32-p271:32:32-p272:64:64-i64:64-i128:128-f80:128-n8:16:32:64-S128"
target triple = "x86_64-pc-linux-gnu"

%struct.AVRational = type { i32, i32 }
%struct.AVFormatContext = type { ptr, ptr, ptr, ptr, ptr, i32, i32, ptr, i32, ptr, i32, ptr, ptr, i64, i64, i64, i32, i32, i32, i64, i64, ptr, i32, i32, ptr, i32, i32, i32, i32, ptr, i64, i32, i32, %struct.AVIOInterruptCB, i32, i32, i32, i32, i64, i32, i32, i32, i32, i32, i32, i32, i32, i32, i32, i32, i32, i64, i32, i32, i32, i32, i32, ptr, ptr, ptr, ptr, i32, ptr, ptr, ptr, ptr, i32, ptr, ptr, i64, ptr, ptr, ptr, i64 }
%struct.AVIOInterruptCB = type { ptr, ptr }
%struct.SERDemuxerContext = type { ptr, i32, i32, %struct.AVRational, i64 }
%struct.AVPacket = type { ptr, i64, i64, ptr, i32, i32, i32, ptr, i32, i64, i64, ptr, ptr, %struct.AVRational }
%struct.FFFormatContext = type { %struct.AVFormatContext, i32, %struct.PacketList, i64, ptr, ptr, i32, ptr, i32 }
%struct.PacketList = type { ptr, ptr }

; Function Attrs: alwaysinline nounwind uwtable
define internal ptr @ffformatcontext(ptr noundef %0) #5 {
  %2 = alloca ptr, align 8
  store ptr %0, ptr %2, align 8, !tbaa !13
  %3 = load ptr, ptr %2, align 8, !tbaa !13
  ret ptr %3
}

; Function Attrs: alwaysinline nounwind uwtable
define internal i64 @avio_tell(ptr noundef %0) #5 {
  %2 = alloca ptr, align 8
  store ptr %0, ptr %2, align 8, !tbaa !73
  %3 = load ptr, ptr %2, align 8, !tbaa !73
  %4 = call i64 @avio_seek(ptr noundef %3, i64 noundef 0, i32 noundef 1)
  ret i64 %4
}

; Function Attrs: nounwind uwtable
define internal i32 @ser_read_packet(ptr noundef %0, ptr noundef %1) #0 {
  %3 = alloca i32, align 4
  %4 = alloca ptr, align 8
  %5 = alloca ptr, align 8
  %6 = alloca ptr, align 8
  %7 = alloca i64, align 8
  %8 = alloca i32, align 4
  %9 = alloca i32, align 4
  store ptr %0, ptr %4, align 8, !tbaa !13
  store ptr %1, ptr %5, align 8, !tbaa !62
  call void @llvm.lifetime.start.p0(i64 8, ptr %6) #7
  %10 = load ptr, ptr %4, align 8, !tbaa !13
  %11 = getelementptr inbounds nuw %struct.AVFormatContext, ptr %10, i32 0, i32 3
  %12 = load ptr, ptr %11, align 8, !tbaa !15
  store ptr %12, ptr %6, align 8, !tbaa !30
  call void @llvm.lifetime.start.p0(i64 8, ptr %7) #7
  call void @llvm.lifetime.start.p0(i64 4, ptr %8) #7
  %13 = load ptr, ptr %4, align 8, !tbaa !13
  %14 = getelementptr inbounds nuw %struct.AVFormatContext, ptr %13, i32 0, i32 4
  %15 = load ptr, ptr %14, align 8, !tbaa !34
  %16 = call i64 @avio_tell(ptr noundef %15)
  store i64 %16, ptr %7, align 8, !tbaa !64
  %17 = load i64, ptr %7, align 8, !tbaa !64
  %18 = load ptr, ptr %6, align 8, !tbaa !30
  %19 = getelementptr inbounds nuw %struct.SERDemuxerContext, ptr %18, i32 0, i32 4
  %20 = load i64, ptr %19, align 8, !tbaa !57
  %21 = icmp sge i64 %17, %20
  br i1 %21, label %22, label %23

22:                                               ; preds = %2
  store i32 -541478725, ptr %3, align 4
  store i32 1, ptr %9, align 4
  br label %56

23:                                               ; preds = %2
  %24 = load ptr, ptr %4, align 8, !tbaa !13
  %25 = getelementptr inbounds nuw %struct.AVFormatContext, ptr %24, i32 0, i32 4
  %26 = load ptr, ptr %25, align 8, !tbaa !34
  %27 = load ptr, ptr %5, align 8, !tbaa !62
  %28 = load ptr, ptr %4, align 8, !tbaa !13
  %29 = getelementptr inbounds nuw %struct.AVFormatContext, ptr %28, i32 0, i32 16
  %30 = load i32, ptr %29, align 8, !tbaa !58
  %31 = call i32 @av_get_packet(ptr noundef %26, ptr noundef %27, i32 noundef %30)
  store i32 %31, ptr %8, align 4, !tbaa !35
  %32 = load ptr, ptr %5, align 8, !tbaa !62
  %33 = getelementptr inbounds nuw %struct.AVPacket, ptr %32, i32 0, i32 10
  %34 = load i64, ptr %33, align 8, !tbaa !65
  %35 = load ptr, ptr %4, align 8, !tbaa !13
  %36 = call ptr @ffformatcontext(ptr noundef %35)
  %37 = getelementptr inbounds nuw %struct.FFFormatContext, ptr %36, i32 0, i32 3
  %38 = load i64, ptr %37, align 8, !tbaa !66
  %39 = sub nsw i64 %34, %38
  %40 = load ptr, ptr %4, align 8, !tbaa !13
  %41 = getelementptr inbounds nuw %struct.AVFormatContext, ptr %40, i32 0, i32 16
  %42 = load i32, ptr %41, align 8, !tbaa !58
  %43 = zext i32 %42 to i64
  %44 = sdiv i64 %39, %43
  %45 = load ptr, ptr %5, align 8, !tbaa !62
  %46 = getelementptr inbounds nuw %struct.AVPacket, ptr %45, i32 0, i32 2
  store i64 %44, ptr %46, align 8, !tbaa !70
  %47 = load ptr, ptr %5, align 8, !tbaa !62
  %48 = getelementptr inbounds nuw %struct.AVPacket, ptr %47, i32 0, i32 1
  store i64 %44, ptr %48, align 8, !tbaa !71
  %49 = load ptr, ptr %5, align 8, !tbaa !62
  %50 = getelementptr inbounds nuw %struct.AVPacket, ptr %49, i32 0, i32 5
  store i32 0, ptr %50, align 4, !tbaa !72
  %51 = load i32, ptr %8, align 4, !tbaa !35
  %52 = icmp slt i32 %51, 0
  br i1 %52, label %53, label %55

53:                                               ; preds = %23
  %54 = load i32, ptr %8, align 4, !tbaa !35
  store i32 %54, ptr %3, align 4
  store i32 1, ptr %9, align 4
  br label %56

55:                                               ; preds = %23
  store i32 0, ptr %3, align 4
  store i32 1, ptr %9, align 4
  br label %56

56:                                               ; preds = %55, %53, %22
  call void @llvm.lifetime.end.p0(i64 4, ptr %8) #7
  call void @llvm.lifetime.end.p0(i64 8, ptr %7) #7
  call void @llvm.lifetime.end.p0(i64 8, ptr %6) #7
  %57 = load i32, ptr %3, align 4
  ret i32 %57
}