; Function Attrs: nounwind uwtable
define internal range(i32 -2147483648, 1) i32 @ser_read_packet(ptr noundef readonly captures(none) %0, ptr noundef %1) #1 {
  %3 = getelementptr inbounds nuw i8, ptr %0, i64 24
  %4 = load ptr, ptr %3, align 8, !tbaa !11
  %5 = getelementptr inbounds nuw i8, ptr %0, i64 32
  %6 = load ptr, ptr %5, align 8, !tbaa !26
  %7 = tail call i64 @avio_seek(ptr noundef %6, i64 noundef 0, i32 noundef 1) #6
  %8 = getelementptr inbounds nuw i8, ptr %4, i64 24
  %9 = load i64, ptr %8, align 8, !tbaa !48
  %.not = icmp slt i64 %7, %9
  br i1 %.not, label %10, label %26

10:                                               ; preds = %2
  %11 = load ptr, ptr %5, align 8, !tbaa !26
  %12 = getelementptr inbounds nuw i8, ptr %0, i64 120
  %13 = load i32, ptr %12, align 8, !tbaa !49
  %14 = tail call i32 @av_get_packet(ptr noundef %11, ptr noundef %1, i32 noundef %13) #6
  %15 = getelementptr inbounds nuw i8, ptr %1, i64 72
  %16 = load i64, ptr %15, align 8, !tbaa !51
  %17 = getelementptr inbounds nuw i8, ptr %0, i64 496
  %18 = load i64, ptr %17, align 8, !tbaa !52
  %19 = sub nsw i64 %16, %18
  %20 = load i32, ptr %12, align 8, !tbaa !49
  %21 = zext i32 %20 to i64
  %22 = sdiv i64 %19, %21
  %23 = getelementptr inbounds nuw i8, ptr %1, i64 16
  store i64 %22, ptr %23, align 8, !tbaa !57
  %24 = getelementptr inbounds nuw i8, ptr %1, i64 8
  store i64 %22, ptr %24, align 8, !tbaa !58
  %25 = getelementptr inbounds nuw i8, ptr %1, i64 36
  store i32 0, ptr %25, align 4, !tbaa !59
  %. = tail call i32 @llvm.smin.i32(i32 %14, i32 0)
  br label %26

26:                                               ; preds = %10, %2
  %.0 = phi i32 [ -541478725, %2 ], [ %., %10 ]
  ret i32 %.0
}